target datalayout = "e-m:e-p270:32:32-p271:32:32-p272:64:64-i64:64-i128:128-f80:128-n8:16:32:64-S128"
target triple = "x86_64-pc-linux-gnu"

%"class.grpc_core::Duration" = type { i64 }
%"class.grpc_core::Timestamp" = type { i64 }
%"class.grpc_core::Chttp2PingAbusePolicy" = type { %"class.grpc_core::Timestamp", %"class.grpc_core::Duration", i32, i32 }

@_ZN9grpc_core9Timestamp25thread_local_time_source_E = external thread_local global ptr, align 8

; Function Attrs: mustprogress nounwind uwtable
define linkonce_odr void @_ZN9grpc_core8DurationC2El(ptr noundef nonnull align 8 dereferenceable(8) %0, i64 noundef %1) unnamed_addr #7 comdat align 2 {
  %3 = alloca ptr, align 8
  %4 = alloca i64, align 8
  store ptr %0, ptr %3, align 8, !tbaa !20
  store i64 %1, ptr %4, align 8, !tbaa !11
  %5 = load ptr, ptr %3, align 8
  %6 = getelementptr inbounds nuw %"class.grpc_core::Duration", ptr %5, i32 0, i32 0
  %7 = load i64, ptr %4, align 8, !tbaa !11
  store i64 %7, ptr %6, align 8, !tbaa !53
  ret void
}

; Function Attrs: mustprogress uwtable
define linkonce_odr i64 @_ZN9grpc_core8Duration12MillisecondsEl(i64 noundef %0) #4 comdat align 2 {
  %2 = alloca %"class.grpc_core::Duration", align 8
  %3 = alloca i64, align 8
  store i64 %0, ptr %3, align 8, !tbaa !11
  %4 = load i64, ptr %3, align 8, !tbaa !11
  call void @_ZN9grpc_core8DurationC2El(ptr noundef nonnull align 8 dereferenceable(8) %2, i64 noundef %4)
  %5 = getelementptr inbounds nuw %"class.grpc_core::Duration", ptr %2, i32 0, i32 0
  %6 = load i64, ptr %5, align 8
  ret i64 %6
}

; Function Attrs: mustprogress uwtable
define linkonce_odr i64 @_ZN9grpc_core8Duration7SecondsEl(i64 noundef %0) #4 comdat align 2 {
  %2 = alloca %"class.grpc_core::Duration", align 8
  %3 = alloca i64, align 8
  store i64 %0, ptr %3, align 8, !tbaa !11
  %4 = load i64, ptr %3, align 8, !tbaa !11
  %5 = call noundef i64 @_ZN9grpc_core11time_detail9MillisMulEll(i64 noundef %4, i64 noundef 1000)
  %6 = call i64 @_ZN9grpc_core8Duration12MillisecondsEl(i64 noundef %5)
  %7 = getelementptr inbounds nuw %"class.grpc_core::Duration", ptr %2, i32 0, i32 0
  store i64 %6, ptr %7, align 8
  %8 = getelementptr inbounds nuw %"class.grpc_core::Duration", ptr %2, i32 0, i32 0
  %9 = load i64, ptr %8, align 8
  ret i64 %9
}

; Function Attrs: mustprogress nounwind uwtable
define linkonce_odr void @_ZN9grpc_core9TimestampC2El(ptr noundef nonnull align 8 dereferenceable(8) %0, i64 noundef %1) unnamed_addr #7 comdat align 2 {
  %3 = alloca ptr, align 8
  %4 = alloca i64, align 8
  store ptr %0, ptr %3, align 8, !tbaa !43
  store i64 %1, ptr %4, align 8, !tbaa !11
  %5 = load ptr, ptr %3, align 8
  %6 = getelementptr inbounds nuw %"class.grpc_core::Timestamp", ptr %5, i32 0, i32 0
  %7 = load i64, ptr %4, align 8, !tbaa !11
  store i64 %7, ptr %6, align 8, !tbaa !45
  ret void
}

; Function Attrs: inlinehint mustprogress nounwind uwtable
define linkonce_odr noundef i64 @_ZN9grpc_core13SaturatingAddIlEET_S1_S1_(i64 noundef %0, i64 noundef %1) #9 comdat {
  %3 = alloca i64, align 8
  %4 = alloca i64, align 8
  %5 = alloca i64, align 8
  store i64 %0, ptr %4, align 8, !tbaa !11
  store i64 %1, ptr %5, align 8, !tbaa !11
  %6 = load i64, ptr %4, align 8, !tbaa !11
  %7 = icmp sgt i64 %6, 0
  br i1 %7, label %8, label %17

8:                                                ; preds = %2
  %9 = load i64, ptr %5, align 8, !tbaa !11
  %10 = call noundef i64 @_ZNSt14numeric_limitsIlE3maxEv() #3
  %11 = load i64, ptr %4, align 8, !tbaa !11
  %12 = sub nsw i64 %10, %11
  %13 = icmp sgt i64 %9, %12
  br i1 %13, label %14, label %16

14:                                               ; preds = %8
  %15 = call noundef i64 @_ZNSt14numeric_limitsIlE3maxEv() #3
  store i64 %15, ptr %3, align 8
  br label %30

16:                                               ; preds = %8
  br label %26

17:                                               ; preds = %2
  %18 = load i64, ptr %5, align 8, !tbaa !11
  %19 = call noundef i64 @_ZNSt14numeric_limitsIlE3minEv() #3
  %20 = load i64, ptr %4, align 8, !tbaa !11
  %21 = sub nsw i64 %19, %20
  %22 = icmp slt i64 %18, %21
  br i1 %22, label %23, label %25

23:                                               ; preds = %17
  %24 = call noundef i64 @_ZNSt14numeric_limitsIlE3minEv() #3
  store i64 %24, ptr %3, align 8
  br label %30

25:                                               ; preds = %17
  br label %26

26:                                               ; preds = %25, %16
  %27 = load i64, ptr %4, align 8, !tbaa !11
  %28 = load i64, ptr %5, align 8, !tbaa !11
  %29 = add nsw i64 %27, %28
  store i64 %29, ptr %3, align 8
  br label %30

30:                                               ; preds = %26, %23, %14
  %31 = load i64, ptr %3, align 8
  ret i64 %31
}

; Function Attrs: mustprogress nounwind uwtable
define linkonce_odr noundef i64 @_ZNSt14numeric_limitsIlE3minEv() #7 comdat align 2 {
  ret i64 -9223372036854775808
}

; Function Attrs: mustprogress nounwind uwtable
define linkonce_odr noundef i64 @_ZNSt14numeric_limitsIlE3maxEv() #7 comdat align 2 {
  ret i64 9223372036854775807
}

; Function Attrs: mustprogress uwtable
define linkonce_odr i64 @_ZN9grpc_core8Duration7MinutesEl(i64 noundef %0) #4 comdat align 2 {
  %2 = alloca %"class.grpc_core::Duration", align 8
  %3 = alloca i64, align 8
  store i64 %0, ptr %3, align 8, !tbaa !11
  %4 = load i64, ptr %3, align 8, !tbaa !11
  %5 = call noundef i64 @_ZN9grpc_core11time_detail9MillisMulEll(i64 noundef %4, i64 noundef 60)
  %6 = call i64 @_ZN9grpc_core8Duration7SecondsEl(i64 noundef %5)
  %7 = getelementptr inbounds nuw %"class.grpc_core::Duration", ptr %2, i32 0, i32 0
  store i64 %6, ptr %7, align 8
  %8 = getelementptr inbounds nuw %"class.grpc_core::Duration", ptr %2, i32 0, i32 0
  %9 = load i64, ptr %8, align 8
  ret i64 %9
}

; Function Attrs: inlinehint mustprogress nounwind uwtable
define linkonce_odr noundef i64 @_ZN9grpc_core11time_detail9MillisMulEll(i64 noundef %0, i64 noundef %1) #9 comdat {
  %3 = alloca i64, align 8
  %4 = alloca i64, align 8
  store i64 %0, ptr %3, align 8, !tbaa !11
  store i64 %1, ptr %4, align 8, !tbaa !11
  %5 = load i64, ptr %3, align 8, !tbaa !11
  %6 = call noundef i64 @_ZNSt14numeric_limitsIlE3maxEv() #3
  %7 = load i64, ptr %4, align 8, !tbaa !11
  %8 = sdiv i64 %6, %7
  %9 = icmp sge i64 %5, %8
  br i1 %9, label %10, label %12

10:                                               ; preds = %2
  %11 = call noundef i64 @_ZNSt14numeric_limitsIlE3maxEv() #3
  br label %26

12:                                               ; preds = %2
  %13 = load i64, ptr %3, align 8, !tbaa !11
  %14 = call noundef i64 @_ZNSt14numeric_limitsIlE3minEv() #3
  %15 = load i64, ptr %4, align 8, !tbaa !11
  %16 = sdiv i64 %14, %15
  %17 = icmp sle i64 %13, %16
  br i1 %17, label %18, label %20

18:                                               ; preds = %12
  %19 = call noundef i64 @_ZNSt14numeric_limitsIlE3minEv() #3
  br label %24

20:                                               ; preds = %12
  %21 = load i64, ptr %3, align 8, !tbaa !11
  %22 = load i64, ptr %4, align 8, !tbaa !11
  %23 = mul nsw i64 %21, %22
  br label %24

24:                                               ; preds = %20, %18
  %25 = phi i64 [ %19, %18 ], [ %23, %20 ]
  br label %26

26:                                               ; preds = %24, %10
  %27 = phi i64 [ %11, %10 ], [ %25, %24 ]
  ret i64 %27
}

; Function Attrs: mustprogress uwtable
define linkonce_odr i64 @_ZN9grpc_core9Timestamp33FromMillisecondsAfterProcessEpochEl(i64 noundef %0) #4 comdat align 2 {
  %2 = alloca %"class.grpc_core::Timestamp", align 8
  %3 = alloca i64, align 8
  store i64 %0, ptr %3, align 8, !tbaa !11
  %4 = load i64, ptr %3, align 8, !tbaa !11
  call void @_ZN9grpc_core9TimestampC2El(ptr noundef nonnull align 8 dereferenceable(8) %2, i64 noundef %4)
  %5 = getelementptr inbounds nuw %"class.grpc_core::Timestamp", ptr %2, i32 0, i32 0
  %6 = load i64, ptr %5, align 8
  ret i64 %6
}

; Function Attrs: inlinehint mustprogress uwtable
define linkonce_odr noundef i64 @_ZN9grpc_core11time_detail9MillisAddEll(i64 noundef %0, i64 noundef %1) #5 comdat {
  %3 = alloca i64, align 8
  %4 = alloca i64, align 8
  %5 = alloca i64, align 8
  store i64 %0, ptr %4, align 8, !tbaa !11
  store i64 %1, ptr %5, align 8, !tbaa !11
  %6 = load i64, ptr %4, align 8, !tbaa !11
  %7 = call noundef i64 @_ZNSt14numeric_limitsIlE3maxEv() #3
  %8 = icmp eq i64 %6, %7
  br i1 %8, label %13, label %9

9:                                                ; preds = %2
  %10 = load i64, ptr %5, align 8, !tbaa !11
  %11 = call noundef i64 @_ZNSt14numeric_limitsIlE3maxEv() #3
  %12 = icmp eq i64 %10, %11
  br i1 %12, label %13, label %15

13:                                               ; preds = %9, %2
  %14 = call noundef i64 @_ZNSt14numeric_limitsIlE3maxEv() #3
  store i64 %14, ptr %3, align 8
  br label %29

15:                                               ; preds = %9
  %16 = load i64, ptr %4, align 8, !tbaa !11
  %17 = call noundef i64 @_ZNSt14numeric_limitsIlE3minEv() #3
  %18 = icmp eq i64 %16, %17
  br i1 %18, label %23, label %19

19:                                               ; preds = %15
  %20 = load i64, ptr %5, align 8, !tbaa !11
  %21 = call noundef i64 @_ZNSt14numeric_limitsIlE3minEv() #3
  %22 = icmp eq i64 %20, %21
  br i1 %22, label %23, label %25

23:                                               ; preds = %19, %15
  %24 = call noundef i64 @_ZNSt14numeric_limitsIlE3minEv() #3
  store i64 %24, ptr %3, align 8
  br label %29

25:                                               ; preds = %19
  %26 = load i64, ptr %4, align 8, !tbaa !11
  %27 = load i64, ptr %5, align 8, !tbaa !11
  %28 = call noundef i64 @_ZN9grpc_core13SaturatingAddIlEET_S1_S1_(i64 noundef %26, i64 noundef %27)
  store i64 %28, ptr %3, align 8
  br label %29

29:                                               ; preds = %25, %23, %13
  %30 = load i64, ptr %3, align 8
  ret i64 %30
}

; Function Attrs: mustprogress nounwind uwtable
define linkonce_odr noundef i64 @_ZNK9grpc_core8Duration6millisEv(ptr noundef nonnull align 8 dereferenceable(8) %0) #7 comdat align 2 {
  %2 = alloca ptr, align 8
  store ptr %0, ptr %2, align 8, !tbaa !20
  %3 = load ptr, ptr %2, align 8
  %4 = getelementptr inbounds nuw %"class.grpc_core::Duration", ptr %3, i32 0, i32 0
  %5 = load i64, ptr %4, align 8, !tbaa !53
  ret i64 %5
}

; Function Attrs: mustprogress nounwind uwtable
define linkonce_odr noundef i64 @_ZNK9grpc_core9Timestamp32milliseconds_after_process_epochEv(ptr noundef nonnull align 8 dereferenceable(8) %0) #7 comdat align 2 {
  %2 = alloca ptr, align 8
  store ptr %0, ptr %2, align 8, !tbaa !43
  %3 = load ptr, ptr %2, align 8
  %4 = getelementptr inbounds nuw %"class.grpc_core::Timestamp", ptr %3, i32 0, i32 0
  %5 = load i64, ptr %4, align 8, !tbaa !45
  ret i64 %5
}

; Function Attrs: mustprogress uwtable
define linkonce_odr i64 @_ZN9grpc_core8Duration5HoursEl(i64 noundef %0) #4 comdat align 2 {
  %2 = alloca %"class.grpc_core::Duration", align 8
  %3 = alloca i64, align 8
  store i64 %0, ptr %3, align 8, !tbaa !11
  %4 = load i64, ptr %3, align 8, !tbaa !11
  %5 = call noundef i64 @_ZN9grpc_core11time_detail9MillisMulEll(i64 noundef %4, i64 noundef 60)
  %6 = call i64 @_ZN9grpc_core8Duration7MinutesEl(i64 noundef %5)
  %7 = getelementptr inbounds nuw %"class.grpc_core::Duration", ptr %2, i32 0, i32 0
  store i64 %6, ptr %7, align 8
  %8 = getelementptr inbounds nuw %"class.grpc_core::Duration", ptr %2, i32 0, i32 0
  %9 = load i64, ptr %8, align 8
  ret i64 %9
}

; Function Attrs: uwtable
define linkonce_odr hidden noundef ptr @_ZTWN9grpc_core9Timestamp25thread_local_time_source_E() #11 comdat {
  %1 = icmp ne ptr @_ZTHN9grpc_core9Timestamp25thread_local_time_source_E, null
  br i1 %1, label %2, label %3

2:                                                ; preds = %0
  call void @_ZTHN9grpc_core9Timestamp25thread_local_time_source_E()
  br label %3

3:                                                ; preds = %2, %0
  %4 = call align 8 ptr @llvm.threadlocal.address.p0(ptr align 8 @_ZN9grpc_core9Timestamp25thread_local_time_source_E)
  ret ptr %4
}

; Function Attrs: mustprogress nounwind uwtable
define linkonce_odr noundef zeroext i1 @_ZNK9grpc_core9TimestampleES0_(ptr noundef nonnull align 8 dereferenceable(8) %0, i64 %1) #7 comdat align 2 {
  %3 = alloca %"class.grpc_core::Timestamp", align 8
  %4 = alloca ptr, align 8
  %5 = getelementptr inbounds nuw %"class.grpc_core::Timestamp", ptr %3, i32 0, i32 0
  store i64 %1, ptr %5, align 8
  store ptr %0, ptr %4, align 8, !tbaa !43
  %6 = load ptr, ptr %4, align 8
  %7 = getelementptr inbounds nuw %"class.grpc_core::Timestamp", ptr %6, i32 0, i32 0
  %8 = load i64, ptr %7, align 8, !tbaa !45
  %9 = getelementptr inbounds nuw %"class.grpc_core::Timestamp", ptr %3, i32 0, i32 0
  %10 = load i64, ptr %9, align 8, !tbaa !45
  %11 = icmp sle i64 %8, %10
  ret i1 %11
}

; Function Attrs: inlinehint mustprogress uwtable
define linkonce_odr i64 @_ZN9grpc_coreplENS_9TimestampENS_8DurationE(i64 %0, i64 %1) #5 comdat {
  %3 = alloca %"class.grpc_core::Timestamp", align 8
  %4 = alloca %"class.grpc_core::Timestamp", align 8
  %5 = alloca %"class.grpc_core::Duration", align 8
  %6 = getelementptr inbounds nuw %"class.grpc_core::Timestamp", ptr %4, i32 0, i32 0
  store i64 %0, ptr %6, align 8
  %7 = getelementptr inbounds nuw %"class.grpc_core::Duration", ptr %5, i32 0, i32 0
  store i64 %1, ptr %7, align 8
  %8 = call noundef i64 @_ZNK9grpc_core9Timestamp32milliseconds_after_process_epochEv(ptr noundef nonnull align 8 dereferenceable(8) %4)
  %9 = call noundef i64 @_ZNK9grpc_core8Duration6millisEv(ptr noundef nonnull align 8 dereferenceable(8) %5)
  %10 = call noundef i64 @_ZN9grpc_core11time_detail9MillisAddEll(i64 noundef %8, i64 noundef %9)
  %11 = call i64 @_ZN9grpc_core9Timestamp33FromMillisecondsAfterProcessEpochEl(i64 noundef %10)
  %12 = getelementptr inbounds nuw %"class.grpc_core::Timestamp", ptr %3, i32 0, i32 0
  store i64 %11, ptr %12, align 8
  %13 = getelementptr inbounds nuw %"class.grpc_core::Timestamp", ptr %3, i32 0, i32 0
  %14 = load i64, ptr %13, align 8
  ret i64 %14
}

; Function Attrs: mustprogress uwtable
define i64 @_ZNK9grpc_core21Chttp2PingAbusePolicy27RecvPingIntervalWithoutDataEb(ptr noundef nonnull align 8 dereferenceable(24) %0, i1 noundef zeroext %1) #4 align 2 {
  %3 = alloca %"class.grpc_core::Duration", align 8
  %4 = alloca ptr, align 8
  %5 = alloca i8, align 1
  store ptr %0, ptr %4, align 8, !tbaa !3
  %6 = zext i1 %1 to i8
  store i8 %6, ptr %5, align 1, !tbaa !35
  %7 = load ptr, ptr %4, align 8
  %8 = load i8, ptr %5, align 1, !tbaa !35, !range !37, !noundef !38
  %9 = trunc i8 %8 to i1
  br i1 %9, label %10, label %13

10:                                               ; preds = %2
  %11 = call i64 @_ZN9grpc_core8Duration5HoursEl(i64 noundef 2)
  %12 = getelementptr inbounds nuw %"class.grpc_core::Duration", ptr %3, i32 0, i32 0
  store i64 %11, ptr %12, align 8
  br label %15

13:                                               ; preds = %2
  %14 = getelementptr inbounds nuw %"class.grpc_core::Chttp2PingAbusePolicy", ptr %7, i32 0, i32 1
  call void @llvm.memcpy.p0.p0.i64(ptr align 8 %3, ptr align 8 %14, i64 8, i1 false), !tbaa.struct !10
  br label %15

15:                                               ; preds = %13, %10
  %16 = getelementptr inbounds nuw %"class.grpc_core::Duration", ptr %3, i32 0, i32 0
  %17 = load i64, ptr %16, align 8
  ret i64 %17
}

; Function Attrs: mustprogress uwtable
define linkonce_odr i64 @_ZN9grpc_core9Timestamp3NowEv() #4 comdat align 2 {
  %1 = alloca %"class.grpc_core::Timestamp", align 8
  %2 = call ptr @_ZTWN9grpc_core9Timestamp25thread_local_time_source_E()
  %3 = load ptr, ptr %2, align 8, !tbaa !39
  %4 = load ptr, ptr %3, align 8, !tbaa !41
  %5 = getelementptr inbounds ptr, ptr %4, i64 0
  %6 = load ptr, ptr %5, align 8
  %7 = call i64 %6(ptr noundef nonnull align 8 dereferenceable(8) %3)
  %8 = getelementptr inbounds nuw %"class.grpc_core::Timestamp", ptr %1, i32 0, i32 0
  store i64 %7, ptr %8, align 8
  %9 = getelementptr inbounds nuw %"class.grpc_core::Timestamp", ptr %1, i32 0, i32 0
  %10 = load i64, ptr %9, align 8
  ret i64 %10
}

; Function Attrs: mustprogress uwtable
define noundef zeroext i1 @_ZN9grpc_core21Chttp2PingAbusePolicy15ReceivedOnePingEb(ptr noundef nonnull align 8 dereferenceable(24) %0, i1 noundef zeroext %1) #4 align 2 {
  %3 = alloca i1, align 1
  %4 = alloca ptr, align 8
  %5 = alloca i8, align 1
  %6 = alloca %"class.grpc_core::Timestamp", align 8
  %7 = alloca %"class.grpc_core::Timestamp", align 8
  %8 = alloca %"class.grpc_core::Timestamp", align 8
  %9 = alloca %"class.grpc_core::Duration", align 8
  %10 = alloca %"class.grpc_core::Timestamp", align 8
  %11 = alloca i32, align 4
  store ptr %0, ptr %4, align 8, !tbaa !3
  %12 = zext i1 %1 to i8
  store i8 %12, ptr %5, align 1, !tbaa !35
  %13 = load ptr, ptr %4, align 8
  call void @llvm.lifetime.start.p0(i64 8, ptr %6) #3
  %14 = call i64 @_ZN9grpc_core9Timestamp3NowEv()
  %15 = getelementptr inbounds nuw %"class.grpc_core::Timestamp", ptr %6, i32 0, i32 0
  store i64 %14, ptr %15, align 8
  call void @llvm.lifetime.start.p0(i64 8, ptr %7) #3
  %16 = getelementptr inbounds nuw %"class.grpc_core::Chttp2PingAbusePolicy", ptr %13, i32 0, i32 0
  call void @llvm.memcpy.p0.p0.i64(ptr align 8 %8, ptr align 8 %16, i64 8, i1 false), !tbaa.struct !10
  %17 = load i8, ptr %5, align 1, !tbaa !35, !range !37, !noundef !38
  %18 = trunc i8 %17 to i1
  %19 = call i64 @_ZNK9grpc_core21Chttp2PingAbusePolicy27RecvPingIntervalWithoutDataEb(ptr noundef nonnull align 8 dereferenceable(24) %13, i1 noundef zeroext %18)
  %20 = getelementptr inbounds nuw %"class.grpc_core::Duration", ptr %9, i32 0, i32 0
  store i64 %19, ptr %20, align 8
  %21 = getelementptr inbounds nuw %"class.grpc_core::Timestamp", ptr %8, i32 0, i32 0
  %22 = load i64, ptr %21, align 8
  %23 = getelementptr inbounds nuw %"class.grpc_core::Duration", ptr %9, i32 0, i32 0
  %24 = load i64, ptr %23, align 8
  %25 = call i64 @_ZN9grpc_coreplENS_9TimestampENS_8DurationE(i64 %22, i64 %24)
  %26 = getelementptr inbounds nuw %"class.grpc_core::Timestamp", ptr %7, i32 0, i32 0
  store i64 %25, ptr %26, align 8
  %27 = getelementptr inbounds nuw %"class.grpc_core::Chttp2PingAbusePolicy", ptr %13, i32 0, i32 0
  call void @llvm.memcpy.p0.p0.i64(ptr align 8 %27, ptr align 8 %6, i64 8, i1 false), !tbaa.struct !10
  call void @llvm.memcpy.p0.p0.i64(ptr align 8 %10, ptr align 8 %6, i64 8, i1 false), !tbaa.struct !10
  %28 = getelementptr inbounds nuw %"class.grpc_core::Timestamp", ptr %10, i32 0, i32 0
  %29 = load i64, ptr %28, align 8
  %30 = call noundef zeroext i1 @_ZNK9grpc_core9TimestampleES0_(ptr noundef nonnull align 8 dereferenceable(8) %7, i64 %29)
  br i1 %30, label %31, label %32

31:                                               ; preds = %2
  store i1 false, ptr %3, align 1
  store i32 1, ptr %11, align 4
  br label %47

32:                                               ; preds = %2
  %33 = getelementptr inbounds nuw %"class.grpc_core::Chttp2PingAbusePolicy", ptr %13, i32 0, i32 2
  %34 = load i32, ptr %33, align 8, !tbaa !13
  %35 = add nsw i32 %34, 1
  store i32 %35, ptr %33, align 8, !tbaa !13
  %36 = getelementptr inbounds nuw %"class.grpc_core::Chttp2PingAbusePolicy", ptr %13, i32 0, i32 2
  %37 = load i32, ptr %36, align 8, !tbaa !13
  %38 = getelementptr inbounds nuw %"class.grpc_core::Chttp2PingAbusePolicy", ptr %13, i32 0, i32 3
  %39 = load i32, ptr %38, align 4, !tbaa !19
  %40 = icmp sgt i32 %37, %39
  br i1 %40, label %41, label %45

41:                                               ; preds = %32
  %42 = getelementptr inbounds nuw %"class.grpc_core::Chttp2PingAbusePolicy", ptr %13, i32 0, i32 3
  %43 = load i32, ptr %42, align 4, !tbaa !19
  %44 = icmp ne i32 %43, 0
  br label %45

45:                                               ; preds = %41, %32
  %46 = phi i1 [ false, %32 ], [ %44, %41 ]
  store i1 %46, ptr %3, align 1
  store i32 1, ptr %11, align 4
  br label %47

47:                                               ; preds = %45, %31
  call void @llvm.lifetime.end.p0(i64 8, ptr %7) #3
  call void @llvm.lifetime.end.p0(i64 8, ptr %6) #3
  %48 = load i1, ptr %3, align 1
  ret i1 %48
}