; Function Attrs: uwtable
define noundef zeroext i1 @_ZN9grpc_core21Chttp2PingAbusePolicy15ReceivedOnePingEb(ptr noundef nonnull align 8 captures(none) dereferenceable(24) %0, i1 noundef zeroext %1) local_unnamed_addr #5 align 2 {
  %.not.i.i = icmp eq ptr @_ZTHN9grpc_core9Timestamp25thread_local_time_source_E, null
  br i1 %.not.i.i, label %_ZN9grpc_core9Timestamp3NowEv.exit, label %3

3:                                                ; preds = %2
  tail call void @_ZTHN9grpc_core9Timestamp25thread_local_time_source_E()
  br label %_ZN9grpc_core9Timestamp3NowEv.exit

_ZN9grpc_core9Timestamp3NowEv.exit:               ; preds = %2, %3
  %4 = tail call noundef align 8 ptr @llvm.threadlocal.address.p0(ptr align 8 @_ZN9grpc_core9Timestamp25thread_local_time_source_E)
  %5 = load ptr, ptr %4, align 8, !tbaa !14
  %6 = load ptr, ptr %5, align 8, !tbaa !17
  %7 = load ptr, ptr %6, align 8
  %8 = tail call i64 %7(ptr noundef nonnull align 8 dereferenceable(8) %5)
  %.sroa.02.0.copyload = load i64, ptr %0, align 8, !tbaa !3
  %9 = getelementptr inbounds nuw i8, ptr %0, i64 8
  %.sroa.0.0.copyload.i = load i64, ptr %9, align 8
  %.sroa.0.0.i = select i1 %1, i64 7200000, i64 %.sroa.0.0.copyload.i
  %10 = icmp eq i64 %.sroa.02.0.copyload, 9223372036854775807
  %11 = icmp eq i64 %.sroa.0.0.i, 9223372036854775807
  %or.cond.i.i = or i1 %10, %11
  br i1 %or.cond.i.i, label %_ZN9grpc_coreplENS_9TimestampENS_8DurationE.exit, label %12

12:                                               ; preds = %_ZN9grpc_core9Timestamp3NowEv.exit
  %13 = icmp eq i64 %.sroa.02.0.copyload, -9223372036854775808
  %14 = icmp eq i64 %.sroa.0.0.i, -9223372036854775808
  %or.cond9.i.i = or i1 %13, %14
  br i1 %or.cond9.i.i, label %_ZN9grpc_coreplENS_9TimestampENS_8DurationE.exit.thread, label %15

15:                                               ; preds = %12
  %16 = icmp sgt i64 %.sroa.02.0.copyload, 0
  br i1 %16, label %17, label %20

17:                                               ; preds = %15
  %18 = sub nuw nsw i64 9223372036854775807, %.sroa.02.0.copyload
  %19 = icmp sgt i64 %.sroa.0.0.i, %18
  br i1 %19, label %_ZN9grpc_coreplENS_9TimestampENS_8DurationE.exit, label %23

20:                                               ; preds = %15
  %21 = sub nsw i64 -9223372036854775808, %.sroa.02.0.copyload
  %22 = icmp slt i64 %.sroa.0.0.i, %21
  br i1 %22, label %_ZN9grpc_coreplENS_9TimestampENS_8DurationE.exit.thread, label %23

23:                                               ; preds = %20, %17
  %24 = add nsw i64 %.sroa.0.0.i, %.sroa.02.0.copyload
  br label %_ZN9grpc_coreplENS_9TimestampENS_8DurationE.exit

_ZN9grpc_coreplENS_9TimestampENS_8DurationE.exit.thread: ; preds = %12, %20
  store i64 %8, ptr %0, align 8, !tbaa !3
  br label %32

_ZN9grpc_coreplENS_9TimestampENS_8DurationE.exit: ; preds = %_ZN9grpc_core9Timestamp3NowEv.exit, %17, %23
  %.0.i.i = phi i64 [ 9223372036854775807, %_ZN9grpc_core9Timestamp3NowEv.exit ], [ %24, %23 ], [ 9223372036854775807, %17 ]
  store i64 %8, ptr %0, align 8, !tbaa !3
  %.not7 = icmp sgt i64 %.0.i.i, %8
  br i1 %.not7, label %25, label %32

25:                                               ; preds = %_ZN9grpc_coreplENS_9TimestampENS_8DurationE.exit
  %26 = getelementptr inbounds nuw i8, ptr %0, i64 16
  %27 = load i32, ptr %26, align 8, !tbaa !7
  %28 = add nsw i32 %27, 1
  store i32 %28, ptr %26, align 8, !tbaa !7
  %29 = getelementptr inbounds nuw i8, ptr %0, i64 20
  %30 = load i32, ptr %29, align 4, !tbaa !12
  %.not = icmp sge i32 %27, %30
  %31 = icmp ne i32 %30, 0
  %spec.select = and i1 %.not, %31
  br label %32

32:                                               ; preds = %_ZN9grpc_coreplENS_9TimestampENS_8DurationE.exit.thread, %_ZN9grpc_coreplENS_9TimestampENS_8DurationE.exit, %25
  %.0 = phi i1 [ %spec.select, %25 ], [ false, %_ZN9grpc_coreplENS_9TimestampENS_8DurationE.exit ], [ false, %_ZN9grpc_coreplENS_9TimestampENS_8DurationE.exit.thread ]
  ret i1 %.0
}